target datalayout = "e-m:e-p270:32:32-p271:32:32-p272:64:64-i64:64-i128:128-f80:128-n8:16:32:64-S128"
target triple = "x86_64-pc-linux-gnu"

%struct.IDAMemRec = type { double, ptr, ptr, i32, double, double, ptr, i32, ptr, ptr, i32, ptr, ptr, i32, i32, double, double, ptr, i32, i32, i32, ptr, ptr, i32, ptr, ptr, ptr, i32, double, i32, i32, double, ptr, ptr, i32, ptr, ptr, i32, i32, i32, double, ptr, ptr, [6 x ptr], [6 x double], [6 x double], [6 x double], [6 x double], [6 x double], ptr, ptr, ptr, ptr, ptr, ptr, ptr, ptr, ptr, ptr, ptr, ptr, ptr, ptr, ptr, [6 x ptr], ptr, ptr, ptr, ptr, [6 x ptr], ptr, ptr, ptr, ptr, ptr, ptr, ptr, ptr, ptr, ptr, ptr, ptr, ptr, ptr, [6 x ptr], ptr, ptr, ptr, ptr, ptr, double, ptr, ptr, i32, i32, i32, i32, i32, i32, i32, double, double, double, i32, double, i32, i32, i32, i32, double, double, double, double, double, double, double, double, double, double, double, double, double, double, i32, i32, i32, i32, i32, i64, double, i32, i64, i64, i64, i64, i64, i64, i64, i64, i64, i64, i64, i64, i64, i64, i64, i64, i64, i64, i64, i64, i64, i64, i64, i64, ptr, ptr, ptr, i32, i32, i32, i32, i32, i32, i32, i32, i32, i32, i32, i32, i32, ptr, ptr, ptr, ptr, ptr, ptr, i32, i32, i32, i32, i32, i32, double, double, double, ptr, i32, ptr, ptr, double, double, double, ptr, ptr, ptr, double, double, i32, i32, i64, ptr, i32, i32, ptr, i32 }
%struct.IDAadjMemRec = type { double, double, i32, i32, double, ptr, i32, ptr, i32, ptr, ptr, i32, i64, ptr, i64, i32, ptr, ptr, ptr, ptr, i32, i32, i32, i32, i32, [6 x ptr], [6 x ptr], [6 x double], ptr, ptr, ptr, ptr, i64 }
%struct.IDABMemRec = type { i32, double, ptr, i32, i32, ptr, ptr, ptr, ptr, ptr, ptr, ptr, ptr, ptr, double, ptr, ptr, ptr }
%struct.IDADlsMemRecB = type { i32, ptr, ptr, ptr, ptr }

@.str = private unnamed_addr constant [8 x i8] c"IDASDLS\00", align 1
@.str.26 = private unnamed_addr constant [25 x i8] c"Bad t for interpolation.\00", align 1
@.str.28 = private unnamed_addr constant [22 x i8] c"idaDlsBandJacBWrapper\00", align 1

; Function Attrs: nounwind uwtable
define internal i32 @idaDlsBandJacBWrapper(i64 noundef %0, i64 noundef %1, i64 noundef %2, double noundef %3, double noundef %4, ptr noundef %5, ptr noundef %6, ptr noundef %7, ptr noundef %8, ptr noundef %9, ptr noundef %10, ptr noundef %11, ptr noundef %12) #0 {
  %14 = alloca i32, align 4
  %15 = alloca i64, align 8
  %16 = alloca i64, align 8
  %17 = alloca i64, align 8
  %18 = alloca double, align 8
  %19 = alloca double, align 8
  %20 = alloca ptr, align 8
  %21 = alloca ptr, align 8
  %22 = alloca ptr, align 8
  %23 = alloca ptr, align 8
  %24 = alloca ptr, align 8
  %25 = alloca ptr, align 8
  %26 = alloca ptr, align 8
  %27 = alloca ptr, align 8
  %28 = alloca ptr, align 8
  %29 = alloca ptr, align 8
  %30 = alloca ptr, align 8
  %31 = alloca ptr, align 8
  %32 = alloca i32, align 4
  %33 = alloca i32, align 4
  store i64 %0, ptr %15, align 8, !tbaa !31
  store i64 %1, ptr %16, align 8, !tbaa !31
  store i64 %2, ptr %17, align 8, !tbaa !31
  store double %3, ptr %18, align 8, !tbaa !39
  store double %4, ptr %19, align 8, !tbaa !39
  store ptr %5, ptr %20, align 8, !tbaa !40
  store ptr %6, ptr %21, align 8, !tbaa !40
  store ptr %7, ptr %22, align 8, !tbaa !40
  store ptr %8, ptr %23, align 8, !tbaa !41
  store ptr %9, ptr %24, align 8, !tbaa !3
  store ptr %10, ptr %25, align 8, !tbaa !40
  store ptr %11, ptr %26, align 8, !tbaa !40
  store ptr %12, ptr %27, align 8, !tbaa !40
  call void @llvm.lifetime.start.p0(i64 8, ptr %28) #6
  call void @llvm.lifetime.start.p0(i64 8, ptr %29) #6
  call void @llvm.lifetime.start.p0(i64 8, ptr %30) #6
  call void @llvm.lifetime.start.p0(i64 8, ptr %31) #6
  call void @llvm.lifetime.start.p0(i64 4, ptr %32) #6
  %34 = load ptr, ptr %24, align 8, !tbaa !3
  store ptr %34, ptr %29, align 8, !tbaa !7
  %35 = load ptr, ptr %29, align 8, !tbaa !7
  %36 = getelementptr inbounds nuw %struct.IDAMemRec, ptr %35, i32 0, i32 204
  %37 = load ptr, ptr %36, align 8, !tbaa !62
  store ptr %37, ptr %28, align 8, !tbaa !63
  %38 = load ptr, ptr %28, align 8, !tbaa !63
  %39 = getelementptr inbounds nuw %struct.IDAadjMemRec, ptr %38, i32 0, i32 7
  %40 = load ptr, ptr %39, align 8, !tbaa !81
  store ptr %40, ptr %30, align 8, !tbaa !70
  %41 = load ptr, ptr %30, align 8, !tbaa !70
  %42 = getelementptr inbounds nuw %struct.IDABMemRec, ptr %41, i32 0, i32 10
  %43 = load ptr, ptr %42, align 8, !tbaa !76
  store ptr %43, ptr %31, align 8, !tbaa !77
  %44 = load ptr, ptr %28, align 8, !tbaa !63
  %45 = getelementptr inbounds nuw %struct.IDAadjMemRec, ptr %44, i32 0, i32 24
  %46 = load i32, ptr %45, align 8, !tbaa !82
  %47 = icmp eq i32 %46, 0
  br i1 %47, label %48, label %68

48:                                               ; preds = %13
  %49 = load ptr, ptr %28, align 8, !tbaa !63
  %50 = getelementptr inbounds nuw %struct.IDAadjMemRec, ptr %49, i32 0, i32 17
  %51 = load ptr, ptr %50, align 8, !tbaa !83
  %52 = load ptr, ptr %29, align 8, !tbaa !7
  %53 = load double, ptr %18, align 8, !tbaa !39
  %54 = load ptr, ptr %28, align 8, !tbaa !63
  %55 = getelementptr inbounds nuw %struct.IDAadjMemRec, ptr %54, i32 0, i32 28
  %56 = load ptr, ptr %55, align 8, !tbaa !84
  %57 = load ptr, ptr %28, align 8, !tbaa !63
  %58 = getelementptr inbounds nuw %struct.IDAadjMemRec, ptr %57, i32 0, i32 29
  %59 = load ptr, ptr %58, align 8, !tbaa !85
  %60 = call i32 %51(ptr noundef %52, double noundef %53, ptr noundef %56, ptr noundef %59, ptr noundef null, ptr noundef null)
  store i32 %60, ptr %32, align 4, !tbaa !43
  %61 = load i32, ptr %32, align 4, !tbaa !43
  %62 = icmp ne i32 %61, 0
  br i1 %62, label %63, label %67

63:                                               ; preds = %48
  %64 = load ptr, ptr %30, align 8, !tbaa !70
  %65 = getelementptr inbounds nuw %struct.IDABMemRec, ptr %64, i32 0, i32 2
  %66 = load ptr, ptr %65, align 8, !tbaa !75
  call void (ptr, i32, ptr, ptr, ptr, ...) @IDAProcessError(ptr noundef %66, i32 noundef -1, ptr noundef @.str, ptr noundef @.str.28, ptr noundef @.str.26)
  store i32 -1, ptr %14, align 4
  store i32 1, ptr %33, align 4
  br label %95

67:                                               ; preds = %48
  br label %68

68:                                               ; preds = %67, %13
  %69 = load ptr, ptr %31, align 8, !tbaa !77
  %70 = getelementptr inbounds nuw %struct.IDADlsMemRecB, ptr %69, i32 0, i32 3
  %71 = load ptr, ptr %70, align 8, !tbaa !93
  %72 = load i64, ptr %15, align 8, !tbaa !31
  %73 = load i64, ptr %16, align 8, !tbaa !31
  %74 = load i64, ptr %17, align 8, !tbaa !31
  %75 = load double, ptr %18, align 8, !tbaa !39
  %76 = load double, ptr %19, align 8, !tbaa !39
  %77 = load ptr, ptr %28, align 8, !tbaa !63
  %78 = getelementptr inbounds nuw %struct.IDAadjMemRec, ptr %77, i32 0, i32 28
  %79 = load ptr, ptr %78, align 8, !tbaa !84
  %80 = load ptr, ptr %28, align 8, !tbaa !63
  %81 = getelementptr inbounds nuw %struct.IDAadjMemRec, ptr %80, i32 0, i32 29
  %82 = load ptr, ptr %81, align 8, !tbaa !85
  %83 = load ptr, ptr %20, align 8, !tbaa !40
  %84 = load ptr, ptr %21, align 8, !tbaa !40
  %85 = load ptr, ptr %22, align 8, !tbaa !40
  %86 = load ptr, ptr %23, align 8, !tbaa !41
  %87 = load ptr, ptr %30, align 8, !tbaa !70
  %88 = getelementptr inbounds nuw %struct.IDABMemRec, ptr %87, i32 0, i32 9
  %89 = load ptr, ptr %88, align 8, !tbaa !86
  %90 = load ptr, ptr %25, align 8, !tbaa !40
  %91 = load ptr, ptr %26, align 8, !tbaa !40
  %92 = load ptr, ptr %27, align 8, !tbaa !40
  %93 = call i32 %71(i64 noundef %72, i64 noundef %73, i64 noundef %74, double noundef %75, double noundef %76, ptr noundef %79, ptr noundef %82, ptr noundef %83, ptr noundef %84, ptr noundef %85, ptr noundef %86, ptr noundef %89, ptr noundef %90, ptr noundef %91, ptr noundef %92)
  store i32 %93, ptr %32, align 4, !tbaa !43
  %94 = load i32, ptr %32, align 4, !tbaa !43
  store i32 %94, ptr %14, align 4
  store i32 1, ptr %33, align 4
  br label %95

95:                                               ; preds = %68, %63
  call void @llvm.lifetime.end.p0(i64 4, ptr %32) #6
  call void @llvm.lifetime.end.p0(i64 8, ptr %31) #6
  call void @llvm.lifetime.end.p0(i64 8, ptr %30) #6
  call void @llvm.lifetime.end.p0(i64 8, ptr %29) #6
  call void @llvm.lifetime.end.p0(i64 8, ptr %28) #6
  %96 = load i32, ptr %14, align 4
  ret i32 %96
}