; Function Attrs: nounwind uwtable
define internal i32 @idaDlsBandJacBWrapper(i64 noundef %0, i64 noundef %1, i64 noundef %2, double noundef %3, double noundef %4, ptr noundef %5, ptr noundef %6, ptr noundef %7, ptr noundef %8, ptr noundef %9, ptr noundef %10, ptr noundef %11, ptr noundef %12) #0 {
  %14 = getelementptr inbounds nuw i8, ptr %9, i64 1816
  %15 = load ptr, ptr %14, align 8, !tbaa !51
  %16 = getelementptr inbounds nuw i8, ptr %15, i64 48
  %17 = load ptr, ptr %16, align 8, !tbaa !66
  %18 = getelementptr inbounds nuw i8, ptr %17, i64 72
  %19 = load ptr, ptr %18, align 8, !tbaa !63
  %20 = getelementptr inbounds nuw i8, ptr %15, i64 168
  %21 = load i32, ptr %20, align 8, !tbaa !67
  %22 = icmp eq i32 %21, 0
  br i1 %22, label %23, label %34

23:                                               ; preds = %13
  %24 = getelementptr inbounds nuw i8, ptr %15, i64 128
  %25 = load ptr, ptr %24, align 8, !tbaa !68
  %26 = getelementptr inbounds nuw i8, ptr %15, i64 320
  %27 = load ptr, ptr %26, align 8, !tbaa !69
  %28 = getelementptr inbounds nuw i8, ptr %15, i64 328
  %29 = load ptr, ptr %28, align 8, !tbaa !70
  %30 = tail call i32 %25(ptr noundef nonnull %9, double noundef %3, ptr noundef %27, ptr noundef %29, ptr noundef null, ptr noundef null) #7
  %.not = icmp eq i32 %30, 0
  br i1 %.not, label %34, label %31

31:                                               ; preds = %23
  %32 = getelementptr inbounds nuw i8, ptr %17, i64 16
  %33 = load ptr, ptr %32, align 8, !tbaa !62
  tail call void (ptr, i32, ptr, ptr, ptr, ...) @IDAProcessError(ptr noundef %33, i32 noundef -1, ptr noundef nonnull @.str, ptr noundef nonnull @.str.28, ptr noundef nonnull @.str.26) #7
  br label %44

34:                                               ; preds = %23, %13
  %35 = getelementptr inbounds nuw i8, ptr %19, i64 24
  %36 = load ptr, ptr %35, align 8, !tbaa !76
  %37 = getelementptr inbounds nuw i8, ptr %15, i64 320
  %38 = load ptr, ptr %37, align 8, !tbaa !69
  %39 = getelementptr inbounds nuw i8, ptr %15, i64 328
  %40 = load ptr, ptr %39, align 8, !tbaa !70
  %41 = getelementptr inbounds nuw i8, ptr %17, i64 64
  %42 = load ptr, ptr %41, align 8, !tbaa !71
  %43 = tail call i32 %36(i64 noundef %0, i64 noundef %1, i64 noundef %2, double noundef %3, double noundef %4, ptr noundef %38, ptr noundef %40, ptr noundef %5, ptr noundef %6, ptr noundef %7, ptr noundef %8, ptr noundef %42, ptr noundef %10, ptr noundef %11, ptr noundef %12) #7
  br label %44

44:                                               ; preds = %34, %31
  %.0 = phi i32 [ -1, %31 ], [ %43, %34 ]
  ret i32 %.0
}